target datalayout = "e-m:e-p270:32:32-p271:32:32-p272:64:64-i64:64-i128:128-f80:128-n8:16:32:64-S128"
target triple = "x86_64-pc-linux-gnu"

@.str.2 = private unnamed_addr constant [99 x i8] c"generated/home/dtcxzyw/WorkSpace/Projects/compilers/llvm-opt-benchmark/bench/hdf5/hdf5/src/H5Doh.c\00", align 1
@__func__.H5O__dset_isa = private unnamed_addr constant [14 x i8] c"H5O__dset_isa\00", align 1
@H5E_DATASET_g = external global i64, align 8
@H5E_CANTINIT_g = external global i64, align 8
@.str.4 = private unnamed_addr constant [29 x i8] c"unable to read object header\00", align 1

; Function Attrs: nounwind uwtable
define internal i32 @H5O__dset_isa(ptr noundef %0) #0 {
  %2 = alloca ptr, align 8
  %3 = alloca i32, align 4
  %4 = alloca i32, align 4
  %5 = alloca i8, align 1
  store ptr %0, ptr %2, align 8
  store i32 1, ptr %4, align 4
  store i8 0, ptr %5, align 1
  %6 = load ptr, ptr %2, align 8
  %7 = call i32 @H5O_msg_exists_oh(ptr noundef %6, i32 noundef 3)
  store i32 %7, ptr %3, align 4
  %8 = icmp slt i32 %7, 0
  br i1 %8, label %9, label %24

9:                                                ; preds = %1
  br label %10

10:                                               ; preds = %9
  br label %11

11:                                               ; preds = %10
  br label %12

12:                                               ; preds = %11
  %13 = load i64, ptr @H5E_DATASET_g, align 8
  %14 = load i64, ptr @H5E_CANTINIT_g, align 8
  %15 = call i32 (ptr, ptr, i32, i64, i64, ptr, ...) @H5E_printf_stack(ptr noundef @.str.2, ptr noundef @__func__.H5O__dset_isa, i32 noundef 172, i64 noundef %13, i64 noundef %14, ptr noundef @.str.4)
  br label %16

16:                                               ; preds = %12
  store i8 1, ptr %5, align 1
  %17 = load i8, ptr %5, align 1
  %18 = trunc i8 %17 to i1
  %19 = zext i1 %18 to i8
  store i8 %19, ptr %5, align 1
  br label %20

20:                                               ; preds = %16
  br label %21

21:                                               ; preds = %20
  store i32 -1, ptr %4, align 4
  br label %58

22:                                               ; No predecessors!
  br label %23

23:                                               ; preds = %22
  br label %31

24:                                               ; preds = %1
  %25 = load i32, ptr %3, align 4
  %26 = icmp ne i32 %25, 0
  br i1 %26, label %30, label %27

27:                                               ; preds = %24
  br label %28

28:                                               ; preds = %27
  store i32 0, ptr %4, align 4
  br label %58

29:                                               ; No predecessors!
  br label %30

30:                                               ; preds = %29, %24
  br label %31

31:                                               ; preds = %30, %23
  %32 = load ptr, ptr %2, align 8
  %33 = call i32 @H5O_msg_exists_oh(ptr noundef %32, i32 noundef 1)
  store i32 %33, ptr %3, align 4
  %34 = icmp slt i32 %33, 0
  br i1 %34, label %35, label %50

35:                                               ; preds = %31
  br label %36

36:                                               ; preds = %35
  br label %37

37:                                               ; preds = %36
  br label %38

38:                                               ; preds = %37
  %39 = load i64, ptr @H5E_DATASET_g, align 8
  %40 = load i64, ptr @H5E_CANTINIT_g, align 8
  %41 = call i32 (ptr, ptr, i32, i64, i64, ptr, ...) @H5E_printf_stack(ptr noundef @.str.2, ptr noundef @__func__.H5O__dset_isa, i32 noundef 178, i64 noundef %39, i64 noundef %40, ptr noundef @.str.4)
  br label %42

42:                                               ; preds = %38
  store i8 1, ptr %5, align 1
  %43 = load i8, ptr %5, align 1
  %44 = trunc i8 %43 to i1
  %45 = zext i1 %44 to i8
  store i8 %45, ptr %5, align 1
  br label %46

46:                                               ; preds = %42
  br label %47

47:                                               ; preds = %46
  store i32 -1, ptr %4, align 4
  br label %58

48:                                               ; No predecessors!
  br label %49

49:                                               ; preds = %48
  br label %57

50:                                               ; preds = %31
  %51 = load i32, ptr %3, align 4
  %52 = icmp ne i32 %51, 0
  br i1 %52, label %56, label %53

53:                                               ; preds = %50
  br label %54

54:                                               ; preds = %53
  store i32 0, ptr %4, align 4
  br label %58

55:                                               ; No predecessors!
  br label %56

56:                                               ; preds = %55, %50
  br label %57

57:                                               ; preds = %56, %49
  br label %58

58:                                               ; preds = %57, %54, %47, %28, %21
  %59 = load i32, ptr %4, align 4
  ret i32 %59
}