; Function Attrs: nounwind uwtable
define internal range(i32 -1, 2) i32 @H5O__dset_isa(ptr noundef %0) #0 {
  %2 = tail call i32 @H5O_msg_exists_oh(ptr noundef %0, i32 noundef 3) #3
  %3 = icmp slt i32 %2, 0
  br i1 %3, label %4, label %8

4:                                                ; preds = %1
  %5 = load i64, ptr @H5E_DATASET_g, align 8
  %6 = load i64, ptr @H5E_CANTINIT_g, align 8
  %7 = tail call i32 (ptr, ptr, i32, i64, i64, ptr, ...) @H5E_printf_stack(ptr noundef nonnull @.str.2, ptr noundef nonnull @__func__.H5O__dset_isa, i32 noundef 172, i64 noundef %5, i64 noundef %6, ptr noundef nonnull @.str.4) #3
  br label %17

8:                                                ; preds = %1
  %.not = icmp eq i32 %2, 0
  br i1 %.not, label %17, label %9

9:                                                ; preds = %8
  %10 = tail call i32 @H5O_msg_exists_oh(ptr noundef %0, i32 noundef 1) #3
  %11 = icmp slt i32 %10, 0
  br i1 %11, label %12, label %16

12:                                               ; preds = %9
  %13 = load i64, ptr @H5E_DATASET_g, align 8
  %14 = load i64, ptr @H5E_CANTINIT_g, align 8
  %15 = tail call i32 (ptr, ptr, i32, i64, i64, ptr, ...) @H5E_printf_stack(ptr noundef nonnull @.str.2, ptr noundef nonnull @__func__.H5O__dset_isa, i32 noundef 178, i64 noundef %13, i64 noundef %14, ptr noundef nonnull @.str.4) #3
  br label %17

16:                                               ; preds = %9
  %.not8 = icmp ne i32 %10, 0
  %spec.select = zext i1 %.not8 to i32
  br label %17

17:                                               ; preds = %16, %8, %12, %4
  %.0 = phi i32 [ -1, %4 ], [ -1, %12 ], [ 0, %8 ], [ %spec.select, %16 ]
  ret i32 %.0
}